; Function Attrs: nounwind uwtable
define i32 @SUNStepper_Evolve(ptr noundef %0, double noundef %1, ptr noundef %2, ptr noundef %3) local_unnamed_addr #2 {
  %5 = getelementptr inbounds nuw i8, ptr %0, i64 8
  %6 = load ptr, ptr %5, align 8, !tbaa !13
  %7 = load ptr, ptr %6, align 8, !tbaa !18
  %.not = icmp eq ptr %7, null
  br i1 %.not, label %10, label %8

8:                                                ; preds = %4
  %9 = tail call i32 %7(ptr noundef nonnull %0, double noundef %1, ptr noundef %2, ptr noundef %3) #9
  br label %10

10:                                               ; preds = %4, %8
  %.0 = phi i32 [ %9, %8 ], [ -9985, %4 ]
  ret i32 %.0
}